Certificate:
    Data:
        Version: 3 (0x2)
        Serial Number: 9498824453522292559 (0x83d29a8377fd7f4f)
    Signature Algorithm: sha256WithRSAEncryption
        Issuer: C=UA, ST=Some-State, O=SG, OU=SG, CN=Alexander/emailAddress=ekzestencial@gmail.com
        Validity
            Not Before: Mar 26 09:43:51 2017 GMT
            Not After : Mar 26 09:43:51 2018 GMT
        Subject: C=Unknown, ST=Unknown, L=Chernihiv, O=SG, OU=SG, CN=Alexander Slesar
        Subject Public Key Info:
            Public Key Algorithm: rsaEncryption
                Public-Key: (2048 bit)
                Modulus:
                    00:82:04:16:8f:41:6a:65:72:5d:0d:bd:58:30:e3:
                    a2:43:72:bf:6e:7c:49:9d:49:1b:77:3d:67:50:96:
                    e1:b4:12:3d:4b:bd:c5:ef:51:28:4e:7b:67:37:f7:
                    49:e8:82:f7:22:53:ba:96:bb:d3:bf:25:63:90:66:
                    68:92:da:82:b1:cf:f0:de:2c:84:ad:64:73:bb:93:
                    3a:db:07:50:7a:e0:82:fd:0e:a4:20:17:6a:53:1c:
                    0a:f2:3a:67:5f:88:22:ec:f1:1a:2e:94:e6:ba:fb:
                    a5:55:d9:70:56:42:5c:54:9e:e6:01:14:ec:26:ec:
                    d8:54:49:79:d2:9a:fc:07:15:81:d2:32:8a:7d:3d:
                    5e:bd:80:cc:4b:4e:5a:26:c3:b9:55:c5:e3:0b:f1:
                    25:ee:53:2e:f1:81:4f:c2:82:f7:64:31:d6:17:ba:
                    ce:4b:be:f8:d9:91:35:45:5d:13:e0:f0:51:7d:aa:
                    45:b7:73:7d:62:79:92:7a:23:ef:f9:af:e1:d3:4e:
                    59:c4:db:9b:ba:57:28:c3:e5:0c:10:8d:fd:fe:1b:
                    20:c4:9e:43:fc:95:3b:a6:84:02:67:ad:e2:21:b0:
                    7c:f4:82:89:14:a5:95:a4:db:f7:3a:00:d1:f2:fe:
                    52:be:6b:e7:9f:2a:cf:ed:ef:62:47:21:80:01:52:
                    04:49
                Exponent: 65537 (0x10001)
        X509v3 extensions:
            X509v3 Basic Constraints: 
                CA:FALSE
            Netscape Comment: 
                OpenSSL Generated Certificate
            X509v3 Subject Key Identifier: 
                F2:D4:32:BF:0A:AC:8E:4A:51:A5:58:52:A5:45:1C:1E:DF:24:C1:3F
            X509v3 Authority Key Identifier: 
                keyid:D7:E3:F7:7D:42:76:05:92:59:FD:38:6A:53:9F:42:31:B8:BB:73:21

    Signature Algorithm: sha256WithRSAEncryption
         ac:c1:19:e3:83:12:f9:a1:3c:b9:30:9d:0d:a7:be:c4:24:d9:
         83:45:fe:0b:dd:e7:ff:79:86:2d:e0:cb:d8:a6:4f:09:f1:29:
         6e:5c:cd:84:0b:66:62:58:b0:cc:47:ed:be:89:e4:24:74:57:
         4d:c6:32:f1:c1:11:77:2d:33:75:9d:fc:2b:55:6a:a8:5e:be:
         c0:b6:72:1b:9b:6c:d8:32:ff:9e:ec:c4:e1:be:5e:77:cf:be:
         5f:32:fe:05:ed:4e:9d:bc:51:2d:87:65:6e:af:73:a5:23:d5:
         93:83:05:1b:b5:97:4f:d0:e7:5e:e9:aa:74:0c:7e:10:83:d2:
         60:e9:53:6a:70:83:00:6d:81:93:2e:54:37:ca:21:c8:47:f5:
         0c:cf:95:9f:be:b0:d8:a4:3a:a8:17:b1:bb:eb:8c:93:5f:90:
         13:c9:b3:ca:f0:1a:f4:81:3c:89:bb:34:cc:d1:b4:da:8a:74:
         b2:74:84:04:a6:44:14:0b:d5:30:31:33:1a:af:1d:6c:e6:f3:
         00:b1:bf:40:88:2a:ed:18:2c:ee:a0:71:e5:ba:1f:3b:bb:d1:
         45:b7:c0:2f:c5:7c:2f:5e:e1:f0:57:07:dd:b7:90:9c:06:1a:
         33:a5:69:f6:07:e6:7e:39:33:da:34:f5:59:ea:9a:86:50:59:
         98:42:bd:50
-----BEGIN CERTIFICATE-----
MIID4jCCAsqgAwIBAgIJAIPSmoN3/X9PMA0GCSqGSIb3DQEBCwUAMHcxCzAJBgNV
BAYTAlVBMRMwEQYDVQQIDApTb21lLVN0YXRlMQswCQYDVQQKDAJTRzELMAkGA1UE
CwwCU0cxEjAQBgNVBAMMCUFsZXhhbmRlcjElMCMGCSqGSIb3DQEJARYWZWt6ZXN0
ZW5jaWFsQGdtYWlsLmNvbTAeFw0xNzAzMjYwOTQzNTFaFw0xODAzMjYwOTQzNTFa
MG0xEDAOBgNVBAYTB1Vua25vd24xEDAOBgNVBAgTB1Vua25vd24xEjAQBgNVBAcT
CUNoZXJuaWhpdjELMAkGA1UEChMCU0cxCzAJBgNVBAsTAlNHMRkwFwYDVQQDExBB
bGV4YW5kZXIgU2xlc2FyMIIBIjANBgkqhkiG9w0BAQEFAAOCAQ8AMIIBCgKCAQEA
ggQWj0FqZXJdDb1YMOOiQ3K/bnxJnUkbdz1nUJbhtBI9S73F71EoTntnN/dJ6IL3
IlO6lrvTvyVjkGZoktqCsc/w3iyErWRzu5M62wdQeuCC/Q6kIBdqUxwK8jpnX4gi
7PEaLpTmuvulVdlwVkJcVJ7mARTsJuzYVEl50pr8BxWB0jKKfT1evYDMS05aJsO5
VcXjC/El7lMu8YFPwoL3ZDHWF7rOS7742ZE1RV0T4PBRfapFt3N9YnmSeiPv+a/h
005ZxNubulcow+UMEI39/hsgxJ5D/JU7poQCZ63iIbB89IKJFKWVpNv3OgDR8v5S
vmvnnyrP7e9iRyGAAVIESQIDAQABo3sweTAJBgNVHRMEAjAAMCwGCWCGSAGG+EIB
DQQfFh1PcGVuU1NMIEdlbmVyYXRlZCBDZXJ0aWZpY2F0ZTAdBgNVHQ4EFgQU8tQy
vwqsjkpRpVhSpUUcHt8kwT8wHwYDVR0jBBgwFoAU1+P3fUJ2BZJZ/ThqU59CMbi7
cyEwDQYJKoZIhvcNAQELBQADggEBAKzBGeODEvmhPLkwnQ2nvsQk2YNF/gvd5/95
hi3gy9imTwnxKW5czYQLZmJYsMxH7b6J5CR0V03GMvHBEXctM3Wd/CtVaqhevsC2
chubbNgy/57sxOG+XnfPvl8y/gXtTp28US2HZW6vc6Uj1ZODBRu1l0/Q517pqnQM
fhCD0mDpU2pwgwBtgZMuVDfKIchH9QzPlZ++sNikOqgXsbvrjJNfkBPJs8rwGvSB
PIm7NMzRtNqKdLJ0hASmRBQL1TAxMxqvHWzm8wCxv0CIKu0YLO6gceW6Hzu70UW3
wC/FfC9e4fBXB923kJwGGjOlafYH5n45M9o09VnqmoZQWZhCvVA=
-----END CERTIFICATE-----
