Certificate:
    Data:
        Version: 3 (0x2)
        Serial Number: 9498824453522292558 (0x83d29a8377fd7f4e)
    Signature Algorithm: sha256WithRSAEncryption
        Issuer: C=UA, ST=Some-State, O=SG, OU=SG, CN=Alexander/emailAddress=ekzestencial@gmail.com
        Validity
            Not Before: Mar 26 09:34:51 2017 GMT
            Not After : Mar 25 09:34:51 2020 GMT
        Subject: C=UA, ST=Some-State, O=SG, OU=SG, CN=Alexander/emailAddress=ekzestencial@gmail.com
        Subject Public Key Info:
            Public Key Algorithm: rsaEncryption
                Public-Key: (2048 bit)
                Modulus:
                    00:c0:d7:20:79:27:42:53:53:1d:f3:53:92:93:75:
                    51:36:21:8b:76:8e:56:1d:fa:0d:07:95:e0:7d:6f:
                    e9:dd:45:e3:28:1b:27:e6:9a:86:53:94:56:61:30:
                    54:d6:e8:70:47:c6:91:02:ce:bf:d9:b7:a2:f5:09:
                    09:66:66:39:b6:87:25:1b:e1:ea:6f:84:33:26:19:
                    bf:69:bf:f2:3a:ff:8a:3e:ff:9d:1b:ff:0e:38:cf:
                    85:f8:a9:a1:d2:e3:53:d0:67:06:45:4f:0f:0d:52:
                    7f:ca:d2:0d:0c:02:36:95:13:5e:73:ff:0c:ac:a9:
                    c3:34:69:3a:39:6d:69:b0:27:cb:9d:97:6c:49:a4:
                    4e:ab:28:c5:61:26:ed:e8:8e:42:bb:2b:7d:b0:0f:
                    1d:d3:c9:ca:05:34:9f:27:fd:27:d8:5d:85:e5:74:
                    a6:55:0e:34:60:73:52:71:7e:43:0d:f7:a2:ba:2f:
                    75:64:75:01:be:cc:59:a3:a3:5c:16:92:ae:37:dd:
                    73:45:01:d7:97:59:29:38:15:9c:07:de:e5:a2:c5:
                    c1:c1:d1:af:c7:f4:b6:4b:3e:a1:86:93:00:e9:aa:
                    6a:5f:cb:bc:dc:27:cc:d3:1e:8b:b0:1f:9f:3d:b6:
                    3d:d2:15:b6:9f:b6:b5:60:bb:5c:01:60:da:86:46:
                    fb:cb
                Exponent: 65537 (0x10001)
        X509v3 extensions:
            X509v3 Subject Key Identifier: 
                D7:E3:F7:7D:42:76:05:92:59:FD:38:6A:53:9F:42:31:B8:BB:73:21
            X509v3 Authority Key Identifier: 
                keyid:D7:E3:F7:7D:42:76:05:92:59:FD:38:6A:53:9F:42:31:B8:BB:73:21

            X509v3 Basic Constraints: 
                CA:TRUE
    Signature Algorithm: sha256WithRSAEncryption
         a1:1a:0d:8f:5e:21:c0:a7:be:03:47:ef:46:d5:e5:eb:62:fd:
         b1:33:f9:18:f8:6f:58:9a:b1:f4:61:c5:f3:c3:80:58:cf:e8:
         c0:16:5e:e9:5b:fe:86:59:fd:8e:ab:86:4a:49:a4:23:6e:78:
         09:89:6b:a4:c8:87:4d:d3:b7:c4:c8:96:3d:5a:f6:41:60:38:
         d9:94:d5:30:e6:2a:06:1c:66:0b:16:2c:26:d3:0a:44:c1:c1:
         a6:90:e4:b7:3d:e1:10:41:8a:0d:7b:93:3a:ec:80:74:9d:db:
         9c:fa:b4:60:8e:c3:f0:ce:2c:e1:8c:a0:df:8f:e4:de:98:37:
         4f:3d:d0:ad:f9:4a:97:62:83:c5:be:a2:14:7c:79:ad:ca:0b:
         b1:5a:8b:16:f7:eb:82:2e:28:2f:bf:b5:68:a8:cd:64:a4:90:
         44:1c:c7:1a:b8:f7:44:21:0e:15:d4:53:0b:27:c8:fc:41:4f:
         df:f6:75:b7:f2:5f:9d:10:42:0a:df:77:6c:bb:47:1f:52:5e:
         13:82:8a:54:f2:4d:c9:f7:7d:9f:01:a5:26:10:f9:8f:b2:53:
         31:20:ff:a4:00:78:79:fd:99:a5:5d:8c:64:b7:ae:1b:c6:11:
         1f:9d:67:c0:8a:04:77:ac:7a:ca:b1:c4:0f:e0:18:6d:73:12:
         ae:8b:9c:c7
-----BEGIN CERTIFICATE-----
MIIDwTCCAqmgAwIBAgIJAIPSmoN3/X9OMA0GCSqGSIb3DQEBCwUAMHcxCzAJBgNV
BAYTAlVBMRMwEQYDVQQIDApTb21lLVN0YXRlMQswCQYDVQQKDAJTRzELMAkGA1UE
CwwCU0cxEjAQBgNVBAMMCUFsZXhhbmRlcjElMCMGCSqGSIb3DQEJARYWZWt6ZXN0
ZW5jaWFsQGdtYWlsLmNvbTAeFw0xNzAzMjYwOTM0NTFaFw0yMDAzMjUwOTM0NTFa
MHcxCzAJBgNVBAYTAlVBMRMwEQYDVQQIDApTb21lLVN0YXRlMQswCQYDVQQKDAJT
RzELMAkGA1UECwwCU0cxEjAQBgNVBAMMCUFsZXhhbmRlcjElMCMGCSqGSIb3DQEJ
ARYWZWt6ZXN0ZW5jaWFsQGdtYWlsLmNvbTCCASIwDQYJKoZIhvcNAQEBBQADggEP
ADCCAQoCggEBAMDXIHknQlNTHfNTkpN1UTYhi3aOVh36DQeV4H1v6d1F4ygbJ+aa
hlOUVmEwVNbocEfGkQLOv9m3ovUJCWZmObaHJRvh6m+EMyYZv2m/8jr/ij7/nRv/
DjjPhfipodLjU9BnBkVPDw1Sf8rSDQwCNpUTXnP/DKypwzRpOjltabAny52XbEmk
TqsoxWEm7eiOQrsrfbAPHdPJygU0nyf9J9hdheV0plUONGBzUnF+Qw33orovdWR1
Ab7MWaOjXBaSrjfdc0UB15dZKTgVnAfe5aLFwcHRr8f0tks+oYaTAOmqal/LvNwn
zNMei7Afnz22PdIVtp+2tWC7XAFg2oZG+8sCAwEAAaNQME4wHQYDVR0OBBYEFNfj
931CdgWSWf04alOfQjG4u3MhMB8GA1UdIwQYMBaAFNfj931CdgWSWf04alOfQjG4
u3MhMAwGA1UdEwQFMAMBAf8wDQYJKoZIhvcNAQELBQADggEBAKEaDY9eIcCnvgNH
70bV5eti/bEz+Rj4b1iasfRhxfPDgFjP6MAWXulb/oZZ/Y6rhkpJpCNueAmJa6TI
h03Tt8TIlj1a9kFgONmU1TDmKgYcZgsWLCbTCkTBwaaQ5Lc94RBBig17kzrsgHSd
25z6tGCOw/DOLOGMoN+P5N6YN0890K35Spdig8W+ohR8ea3KC7Faixb364IuKC+/
tWiozWSkkEQcxxq490QhDhXUUwsnyPxBT9/2dbfyX50QQgrfd2y7Rx9SXhOCilTy
Tcn3fZ8BpSYQ+Y+yUzEg/6QAeHn9maVdjGS3rhvGER+dZ8CKBHesesqxxA/gGG1z
Eq6LnMc=
-----END CERTIFICATE-----
